target datalayout = "e-m:e-p270:32:32-p271:32:32-p272:64:64-i64:64-i128:128-f80:128-n8:16:32:64-S128"
target triple = "x86_64-pc-linux-gnu"

%struct.RelationData = type { %struct.RelFileLocator, ptr, i32, i32, i8, i8, i8, i8, i8, i32, i32, i32, i32, ptr, ptr, i32, %struct.LockInfoData, ptr, ptr, ptr, ptr, ptr, i8, ptr, ptr, ptr, ptr, ptr, ptr, i32, ptr, i8, ptr, ptr, i32, i8, i32, ptr, i8, ptr, ptr, ptr, ptr, ptr, ptr, ptr, i32, ptr, ptr, ptr, ptr, ptr, ptr, ptr, ptr, ptr, ptr, ptr, ptr, ptr, ptr, ptr, ptr, ptr, ptr, ptr, i32, i8, ptr }
%struct.RelFileLocator = type { i32, i32, i32 }
%struct.LockInfoData = type { %struct.LockRelId }
%struct.LockRelId = type { i32, i32 }
%struct.FormData_pg_class = type { i32, %struct.nameData, i32, i32, i32, i32, i32, i32, i32, i32, float, i32, i32, i8, i8, i8, i8, i16, i16, i8, i8, i8, i8, i8, i8, i8, i8, i32, i32, i32 }
%struct.nameData = type { [64 x i8] }
%struct.IndexAmRoutine = type { i32, i16, i16, i16, i8, i8, i8, i8, i8, i8, i8, i8, i8, i8, i8, i8, i8, i8, i8, i8, i8, i32, ptr, ptr, ptr, ptr, ptr, ptr, ptr, ptr, ptr, ptr, ptr, ptr, ptr, ptr, ptr, ptr, ptr, ptr, ptr, ptr, ptr, ptr, ptr, ptr, ptr, ptr }
%struct.ParallelIndexScanDescData = type { %struct.RelFileLocator, %struct.RelFileLocator, i64, [0 x i8] }

@.str = private unnamed_addr constant [53 x i8] c"cannot access index \22%s\22 while it is being reindexed\00", align 1
@.str.1 = private unnamed_addr constant [10 x i8] c"indexam.c\00", align 1
@__func__.index_parallelscan_initialize = private unnamed_addr constant [30 x i8] c"index_parallelscan_initialize\00", align 1

; Function Attrs: nounwind uwtable
define dso_local void @index_parallelscan_initialize(ptr noundef %0, ptr noundef %1, ptr noundef %2, ptr noundef %3) #0 {
  %5 = alloca ptr, align 8
  %6 = alloca ptr, align 8
  %7 = alloca ptr, align 8
  %8 = alloca ptr, align 8
  %9 = alloca i64, align 8
  %10 = alloca ptr, align 8
  store ptr %0, ptr %5, align 8
  store ptr %1, ptr %6, align 8
  store ptr %2, ptr %7, align 8
  store ptr %3, ptr %8, align 8
  call void @llvm.lifetime.start.p0(i64 8, ptr %9) #7
  br label %11

11:                                               ; preds = %4
  %12 = load ptr, ptr %6, align 8
  %13 = getelementptr inbounds nuw %struct.RelationData, ptr %12, i32 0, i32 15
  %14 = load i32, ptr %13, align 8
  %15 = call zeroext i1 @ReindexIsProcessingIndex(i32 noundef %14)
  %16 = zext i1 %15 to i32
  %17 = icmp ne i32 %16, 0
  %18 = zext i1 %17 to i32
  %19 = sext i32 %18 to i64
  %20 = call i64 @llvm.expect.i64(i64 %19, i64 0)
  %21 = icmp ne i64 %20, 0
  br i1 %21, label %22, label %40

22:                                               ; preds = %11
  br label %23

23:                                               ; preds = %22
  br i1 true, label %24, label %26

24:                                               ; preds = %23
  %25 = call zeroext i1 @errstart_cold(i32 noundef 21, ptr noundef null) #8
  br i1 %25, label %28, label %37

26:                                               ; preds = %23
  %27 = call zeroext i1 @errstart(i32 noundef 21, ptr noundef null)
  br i1 %27, label %28, label %37

28:                                               ; preds = %26, %24
  %29 = call i32 @errcode(i32 noundef 1088)
  %30 = load ptr, ptr %6, align 8
  %31 = getelementptr inbounds nuw %struct.RelationData, ptr %30, i32 0, i32 13
  %32 = load ptr, ptr %31, align 8
  %33 = getelementptr inbounds nuw %struct.FormData_pg_class, ptr %32, i32 0, i32 1
  %34 = getelementptr inbounds nuw %struct.nameData, ptr %33, i32 0, i32 0
  %35 = getelementptr inbounds [64 x i8], ptr %34, i64 0, i64 0
  %36 = call i32 (ptr, ...) @errmsg(ptr noundef @.str, ptr noundef %35)
  call void @errfinish(ptr noundef @.str.1, i32 noundef 497, ptr noundef @__func__.index_parallelscan_initialize)
  br label %37

37:                                               ; preds = %28, %26, %24
  unreachable

38:                                               ; No predecessors!
  br label %39

39:                                               ; preds = %38
  br label %40

40:                                               ; preds = %39, %11
  br label %41

41:                                               ; preds = %40
  br label %42

42:                                               ; preds = %41
  %43 = load ptr, ptr %7, align 8
  %44 = call i64 @EstimateSnapshotSpace(ptr noundef %43)
  %45 = call i64 @add_size(i64 noundef 32, i64 noundef %44)
  store i64 %45, ptr %9, align 8
  %46 = load i64, ptr %9, align 8
  %47 = add i64 %46, 7
  %48 = and i64 %47, -8
  store i64 %48, ptr %9, align 8
  %49 = load ptr, ptr %8, align 8
  %50 = getelementptr inbounds nuw %struct.ParallelIndexScanDescData, ptr %49, i32 0, i32 0
  %51 = load ptr, ptr %5, align 8
  %52 = getelementptr inbounds nuw %struct.RelationData, ptr %51, i32 0, i32 0
  call void @llvm.memcpy.p0.p0.i64(ptr align 8 %50, ptr align 8 %52, i64 12, i1 false)
  %53 = load ptr, ptr %8, align 8
  %54 = getelementptr inbounds nuw %struct.ParallelIndexScanDescData, ptr %53, i32 0, i32 1
  %55 = load ptr, ptr %6, align 8
  %56 = getelementptr inbounds nuw %struct.RelationData, ptr %55, i32 0, i32 0
  call void @llvm.memcpy.p0.p0.i64(ptr align 4 %54, ptr align 8 %56, i64 12, i1 false)
  %57 = load i64, ptr %9, align 8
  %58 = load ptr, ptr %8, align 8
  %59 = getelementptr inbounds nuw %struct.ParallelIndexScanDescData, ptr %58, i32 0, i32 2
  store i64 %57, ptr %59, align 8
  %60 = load ptr, ptr %7, align 8
  %61 = load ptr, ptr %8, align 8
  %62 = getelementptr inbounds nuw %struct.ParallelIndexScanDescData, ptr %61, i32 0, i32 3
  %63 = getelementptr inbounds [0 x i8], ptr %62, i64 0, i64 0
  call void @SerializeSnapshot(ptr noundef %60, ptr noundef %63)
  %64 = load ptr, ptr %6, align 8
  %65 = getelementptr inbounds nuw %struct.RelationData, ptr %64, i32 0, i32 51
  %66 = load ptr, ptr %65, align 8
  %67 = getelementptr inbounds nuw %struct.IndexAmRoutine, ptr %66, i32 0, i32 44
  %68 = load ptr, ptr %67, align 8
  %69 = icmp ne ptr %68, null
  br i1 %69, label %70, label %80

70:                                               ; preds = %42
  call void @llvm.lifetime.start.p0(i64 8, ptr %10) #7
  %71 = load ptr, ptr %8, align 8
  %72 = load i64, ptr %9, align 8
  %73 = getelementptr inbounds nuw i8, ptr %71, i64 %72
  store ptr %73, ptr %10, align 8
  %74 = load ptr, ptr %6, align 8
  %75 = getelementptr inbounds nuw %struct.RelationData, ptr %74, i32 0, i32 51
  %76 = load ptr, ptr %75, align 8
  %77 = getelementptr inbounds nuw %struct.IndexAmRoutine, ptr %76, i32 0, i32 44
  %78 = load ptr, ptr %77, align 8
  %79 = load ptr, ptr %10, align 8
  call void %78(ptr noundef %79)
  call void @llvm.lifetime.end.p0(i64 8, ptr %10) #7
  br label %80

80:                                               ; preds = %70, %42
  call void @llvm.lifetime.end.p0(i64 8, ptr %9) #7
  ret void
}