; Function Attrs: nounwind uwtable
define dso_local void @index_parallelscan_initialize(ptr noundef readonly captures(none) %0, ptr noundef readonly captures(none) %1, ptr noundef %2, ptr noundef %3) local_unnamed_addr #0 {
  %5 = getelementptr inbounds nuw i8, ptr %1, i64 72
  %6 = load i32, ptr %5, align 8
  %7 = tail call zeroext i1 @ReindexIsProcessingIndex(i32 noundef %6) #7
  br i1 %7, label %8, label %15, !prof !4

8:                                                ; preds = %4
  %9 = tail call zeroext i1 @errstart_cold(i32 noundef 21, ptr noundef null) #8
  tail call void @llvm.assume(i1 %9)
  %10 = tail call i32 @errcode(i32 noundef 1088) #7
  %11 = getelementptr inbounds nuw i8, ptr %1, i64 56
  %12 = load ptr, ptr %11, align 8
  %13 = getelementptr inbounds nuw i8, ptr %12, i64 4
  %14 = tail call i32 (ptr, ...) @errmsg(ptr noundef nonnull @.str, ptr noundef nonnull %13) #7
  tail call void @errfinish(ptr noundef nonnull @.str.1, i32 noundef 497, ptr noundef nonnull @__func__.index_parallelscan_initialize) #7
  unreachable

15:                                               ; preds = %4
  %16 = tail call i64 @EstimateSnapshotSpace(ptr noundef %2) #7
  %17 = tail call i64 @add_size(i64 noundef 32, i64 noundef %16) #7
  %18 = add i64 %17, 7
  %19 = and i64 %18, -8
  tail call void @llvm.memcpy.p0.p0.i64(ptr noundef nonnull align 8 dereferenceable(12) %3, ptr noundef nonnull align 8 dereferenceable(12) %0, i64 12, i1 false)
  %20 = getelementptr inbounds nuw i8, ptr %3, i64 12
  tail call void @llvm.memcpy.p0.p0.i64(ptr noundef nonnull align 4 dereferenceable(12) %20, ptr noundef nonnull align 8 dereferenceable(12) %1, i64 12, i1 false)
  %21 = getelementptr inbounds nuw i8, ptr %3, i64 24
  store i64 %19, ptr %21, align 8
  %22 = getelementptr inbounds nuw i8, ptr %3, i64 32
  tail call void @SerializeSnapshot(ptr noundef %2, ptr noundef nonnull %22) #7
  %23 = getelementptr inbounds nuw i8, ptr %1, i64 352
  %24 = load ptr, ptr %23, align 8
  %25 = getelementptr inbounds nuw i8, ptr %24, i64 208
  %26 = load ptr, ptr %25, align 8
  %.not = icmp eq ptr %26, null
  br i1 %.not, label %29, label %27

27:                                               ; preds = %15
  %28 = getelementptr inbounds nuw i8, ptr %3, i64 %19
  tail call void %26(ptr noundef nonnull %28) #7
  br label %29

29:                                               ; preds = %27, %15
  ret void
}